target datalayout = "e-m:e-p270:32:32-p271:32:32-p272:64:64-i64:64-i128:128-f80:128-n8:16:32:64-S128"
target triple = "x86_64-pc-linux-gnu"

%class.inputStream = type { ptr, ptr, i32, i8, ptr, i64, i64, i64, i64, i64, i64, [240 x i8] }

; Function Attrs: mustprogress nounwind uwtable
define linkonce_odr hidden noundef zeroext i1 @_ZNK11inputStream15definitely_doneEv(ptr noundef nonnull align 8 dereferenceable(320) %0) #1 comdat align 2 {
  %2 = alloca ptr, align 8
  store ptr %0, ptr %2, align 8
  %3 = load ptr, ptr %2, align 8
  %4 = getelementptr inbounds %class.inputStream, ptr %3, i32 0, i32 7
  %5 = load i64, ptr %4, align 8
  %6 = getelementptr inbounds %class.inputStream, ptr %3, i32 0, i32 6
  %7 = load i64, ptr %6, align 8
  %8 = icmp eq i64 %5, %7
  br i1 %8, label %9, label %15

9:                                                ; preds = %1
  %10 = getelementptr inbounds %class.inputStream, ptr %3, i32 0, i32 9
  %11 = load i64, ptr %10, align 8
  %12 = getelementptr inbounds %class.inputStream, ptr %3, i32 0, i32 6
  %13 = load i64, ptr %12, align 8
  %14 = icmp ugt i64 %11, %13
  br label %15

15:                                               ; preds = %9, %1
  %16 = phi i1 [ false, %1 ], [ %14, %9 ]
  ret i1 %16
}

; Function Attrs: mustprogress nounwind uwtable
define linkonce_odr hidden noundef zeroext i1 @_ZNK11inputStream5errorEv(ptr noundef nonnull align 8 dereferenceable(320) %0) #1 comdat align 2 {
  %2 = alloca ptr, align 8
  store ptr %0, ptr %2, align 8
  %3 = load ptr, ptr %2, align 8
  %4 = getelementptr inbounds %class.inputStream, ptr %3, i32 0, i32 2
  %5 = load i32, ptr %4, align 8
  %6 = icmp eq i32 %5, 2
  ret i1 %6
}

; Function Attrs: mustprogress nounwind uwtable
define hidden void @_ZN11inputStream8set_doneEv(ptr noundef nonnull align 8 dereferenceable(320) %0) #1 align 2 {
  %2 = alloca ptr, align 8
  %3 = alloca i64, align 8
  store ptr %0, ptr %2, align 8
  %4 = load ptr, ptr %2, align 8
  %5 = getelementptr inbounds %class.inputStream, ptr %4, i32 0, i32 6
  %6 = load i64, ptr %5, align 8
  %7 = getelementptr inbounds %class.inputStream, ptr %4, i32 0, i32 8
  store i64 %6, ptr %7, align 8
  %8 = getelementptr inbounds %class.inputStream, ptr %4, i32 0, i32 7
  store i64 %6, ptr %8, align 8
  store i64 %6, ptr %3, align 8
  %9 = load i64, ptr %3, align 8
  %10 = add i64 %9, 1
  %11 = getelementptr inbounds %class.inputStream, ptr %4, i32 0, i32 9
  store i64 %10, ptr %11, align 8
  %12 = getelementptr inbounds %class.inputStream, ptr %4, i32 0, i32 3
  store i8 0, ptr %12, align 4
  ret void
}

; Function Attrs: mustprogress nounwind uwtable
define hidden void @_ZN11inputStream9set_errorEb(ptr noundef nonnull align 8 dereferenceable(320) %0, i1 noundef zeroext %1) #1 align 2 {
  %3 = alloca ptr, align 8
  %4 = alloca i8, align 1
  store ptr %0, ptr %3, align 8
  %5 = zext i1 %1 to i8
  store i8 %5, ptr %4, align 1
  %6 = load ptr, ptr %3, align 8
  %7 = load i8, ptr %4, align 1
  %8 = trunc i8 %7 to i1
  br i1 %8, label %9, label %11

9:                                                ; preds = %2
  call void @_ZN11inputStream8set_doneEv(ptr noundef nonnull align 8 dereferenceable(320) %6)
  %10 = getelementptr inbounds %class.inputStream, ptr %6, i32 0, i32 2
  store i32 2, ptr %10, align 8
  br label %18

11:                                               ; preds = %2
  %12 = call noundef zeroext i1 @_ZNK11inputStream5errorEv(ptr noundef nonnull align 8 dereferenceable(320) %6)
  br i1 %12, label %13, label %17

13:                                               ; preds = %11
  %14 = call noundef zeroext i1 @_ZNK11inputStream15definitely_doneEv(ptr noundef nonnull align 8 dereferenceable(320) %6)
  %15 = select i1 %14, i32 1, i32 0
  %16 = getelementptr inbounds %class.inputStream, ptr %6, i32 0, i32 2
  store i32 %15, ptr %16, align 8
  br label %17

17:                                               ; preds = %13, %11
  br label %18

18:                                               ; preds = %17, %9
  ret void
}

; Function Attrs: mustprogress nounwind uwtable
define hidden noundef zeroext i1 @_ZN11inputStream13expand_bufferEm(ptr noundef nonnull align 8 dereferenceable(320) %0, i64 noundef %1) #1 align 2 {
  %3 = alloca i1, align 1
  %4 = alloca ptr, align 8
  %5 = alloca i64, align 8
  %6 = alloca ptr, align 8
  store ptr %0, ptr %4, align 8
  store i64 %1, ptr %5, align 8
  %7 = load ptr, ptr %4, align 8
  store ptr null, ptr %6, align 8
  %8 = getelementptr inbounds %class.inputStream, ptr %7, i32 0, i32 4
  %9 = load ptr, ptr %8, align 8
  %10 = getelementptr inbounds %class.inputStream, ptr %7, i32 0, i32 11
  %11 = getelementptr inbounds [240 x i8], ptr %10, i64 0, i64 0
  %12 = icmp eq ptr %9, %11
  br i1 %12, label %13, label %27

13:                                               ; preds = %2
  %14 = load i64, ptr %5, align 8
  %15 = mul i64 %14, 1
  %16 = call noundef ptr @_Z12AllocateHeapm8MEMFLAGSN17AllocFailStrategy13AllocFailEnumE(i64 noundef %15, i8 noundef zeroext 9, i32 noundef 0)
  store ptr %16, ptr %6, align 8
  %17 = getelementptr inbounds %class.inputStream, ptr %7, i32 0, i32 6
  %18 = load i64, ptr %17, align 8
  %19 = icmp ugt i64 %18, 0
  br i1 %19, label %20, label %26

20:                                               ; preds = %13
  %21 = load ptr, ptr %6, align 8
  %22 = getelementptr inbounds %class.inputStream, ptr %7, i32 0, i32 4
  %23 = load ptr, ptr %22, align 8
  %24 = getelementptr inbounds %class.inputStream, ptr %7, i32 0, i32 6
  %25 = load i64, ptr %24, align 8
  call void @llvm.memcpy.p0.p0.i64(ptr align 1 %21, ptr align 1 %23, i64 %25, i1 false)
  br label %26

26:                                               ; preds = %20, %13
  br label %33

27:                                               ; preds = %2
  %28 = getelementptr inbounds %class.inputStream, ptr %7, i32 0, i32 4
  %29 = load ptr, ptr %28, align 8
  %30 = load i64, ptr %5, align 8
  %31 = mul i64 %30, 1
  %32 = call noundef ptr @_Z14ReallocateHeapPcm8MEMFLAGSN17AllocFailStrategy13AllocFailEnumE(ptr noundef %29, i64 noundef %31, i8 noundef zeroext 9, i32 noundef 0)
  store ptr %32, ptr %6, align 8
  br label %33

33:                                               ; preds = %27, %26
  %34 = load ptr, ptr %6, align 8
  %35 = icmp eq ptr %34, null
  br i1 %35, label %36, label %37

36:                                               ; preds = %33
  store i1 false, ptr %3, align 1
  br label %42

37:                                               ; preds = %33
  %38 = load ptr, ptr %6, align 8
  %39 = getelementptr inbounds %class.inputStream, ptr %7, i32 0, i32 4
  store ptr %38, ptr %39, align 8
  %40 = load i64, ptr %5, align 8
  %41 = getelementptr inbounds %class.inputStream, ptr %7, i32 0, i32 5
  store i64 %40, ptr %41, align 8
  store i1 true, ptr %3, align 1
  br label %42

42:                                               ; preds = %37, %36
  %43 = load i1, ptr %3, align 1
  ret i1 %43
}

; Function Attrs: mustprogress nounwind uwtable
define hidden void @_ZN11inputStream12clear_bufferEv(ptr noundef nonnull align 8 dereferenceable(320) %0) #1 align 2 {
  %2 = alloca ptr, align 8
  store ptr %0, ptr %2, align 8
  %3 = load ptr, ptr %2, align 8
  %4 = getelementptr inbounds %class.inputStream, ptr %3, i32 0, i32 9
  store i64 0, ptr %4, align 8
  %5 = getelementptr inbounds %class.inputStream, ptr %3, i32 0, i32 8
  store i64 0, ptr %5, align 8
  %6 = getelementptr inbounds %class.inputStream, ptr %3, i32 0, i32 7
  store i64 0, ptr %6, align 8
  %7 = getelementptr inbounds %class.inputStream, ptr %3, i32 0, i32 6
  store i64 0, ptr %7, align 8
  %8 = getelementptr inbounds %class.inputStream, ptr %3, i32 0, i32 3
  store i8 0, ptr %8, align 4
  ret void
}

; Function Attrs: mustprogress nounwind uwtable
define hidden void @_ZN11inputStream22prepare_to_fill_bufferERmS0_(ptr noundef nonnull align 8 dereferenceable(320) %0, ptr noundef nonnull align 8 dereferenceable(8) %1, ptr noundef nonnull align 8 dereferenceable(8) %2) #1 align 2 {
  %4 = alloca ptr, align 8
  %5 = alloca ptr, align 8
  %6 = alloca ptr, align 8
  %7 = alloca i64, align 8
  %8 = alloca i64, align 8
  %9 = alloca i64, align 8
  store ptr %0, ptr %4, align 8
  store ptr %1, ptr %5, align 8
  store ptr %2, ptr %6, align 8
  %10 = load ptr, ptr %4, align 8
  %11 = getelementptr inbounds %class.inputStream, ptr %10, i32 0, i32 6
  %12 = load i64, ptr %11, align 8
  store i64 %12, ptr %7, align 8
  %13 = getelementptr inbounds %class.inputStream, ptr %10, i32 0, i32 7
  %14 = load i64, ptr %13, align 8
  %15 = load i64, ptr %7, align 8
  %16 = icmp eq i64 %14, %15
  br i1 %16, label %17, label %22

17:                                               ; preds = %3
  call void @_ZN11inputStream12clear_bufferEv(ptr noundef nonnull align 8 dereferenceable(320) %10)
  %18 = load ptr, ptr %5, align 8
  store i64 0, ptr %18, align 8
  %19 = getelementptr inbounds %class.inputStream, ptr %10, i32 0, i32 5
  %20 = load i64, ptr %19, align 8
  %21 = load ptr, ptr %6, align 8
  store i64 %20, ptr %21, align 8
  br label %105

22:                                               ; preds = %3
  %23 = getelementptr inbounds %class.inputStream, ptr %10, i32 0, i32 7
  %24 = load i64, ptr %23, align 8
  %25 = icmp ugt i64 %24, 0
  br i1 %25, label %26, label %67

26:                                               ; preds = %22
  %27 = getelementptr inbounds %class.inputStream, ptr %10, i32 0, i32 1
  %28 = load ptr, ptr %27, align 8
  %29 = icmp ne ptr %28, null
  br i1 %29, label %35, label %30

30:                                               ; preds = %26
  %31 = load i64, ptr %7, align 8
  %32 = getelementptr inbounds %class.inputStream, ptr %10, i32 0, i32 5
  %33 = load i64, ptr %32, align 8
  %34 = icmp eq i64 %31, %33
  br i1 %34, label %35, label %67

35:                                               ; preds = %30, %26
  %36 = getelementptr inbounds %class.inputStream, ptr %10, i32 0, i32 7
  %37 = load i64, ptr %36, align 8
  store i64 %37, ptr %8, align 8
  %38 = getelementptr inbounds %class.inputStream, ptr %10, i32 0, i32 4
  %39 = load ptr, ptr %38, align 8
  %40 = getelementptr inbounds %class.inputStream, ptr %10, i32 0, i32 4
  %41 = load ptr, ptr %40, align 8
  %42 = load i64, ptr %8, align 8
  %43 = getelementptr inbounds i8, ptr %41, i64 %42
  %44 = getelementptr inbounds %class.inputStream, ptr %10, i32 0, i32 6
  %45 = load i64, ptr %44, align 8
  %46 = getelementptr inbounds %class.inputStream, ptr %10, i32 0, i32 7
  %47 = load i64, ptr %46, align 8
  %48 = sub i64 %45, %47
  call void @llvm.memmove.p0.p0.i64(ptr align 1 %39, ptr align 1 %43, i64 %48, i1 false)
  %49 = load i64, ptr %8, align 8
  %50 = getelementptr inbounds %class.inputStream, ptr %10, i32 0, i32 7
  %51 = load i64, ptr %50, align 8
  %52 = sub i64 %51, %49
  store i64 %52, ptr %50, align 8
  %53 = load i64, ptr %8, align 8
  %54 = getelementptr inbounds %class.inputStream, ptr %10, i32 0, i32 8
  %55 = load i64, ptr %54, align 8
  %56 = sub i64 %55, %53
  store i64 %56, ptr %54, align 8
  %57 = load i64, ptr %8, align 8
  %58 = getelementptr inbounds %class.inputStream, ptr %10, i32 0, i32 9
  %59 = load i64, ptr %58, align 8
  %60 = sub i64 %59, %57
  store i64 %60, ptr %58, align 8
  %61 = load i64, ptr %8, align 8
  %62 = getelementptr inbounds %class.inputStream, ptr %10, i32 0, i32 6
  %63 = load i64, ptr %62, align 8
  %64 = sub i64 %63, %61
  store i64 %64, ptr %62, align 8
  %65 = getelementptr inbounds %class.inputStream, ptr %10, i32 0, i32 6
  %66 = load i64, ptr %65, align 8
  store i64 %66, ptr %7, align 8
  br label %67

67:                                               ; preds = %35, %30, %22
  %68 = load i64, ptr %7, align 8
  %69 = getelementptr inbounds %class.inputStream, ptr %10, i32 0, i32 5
  %70 = load i64, ptr %69, align 8
  %71 = icmp ult i64 %68, %70
  br i1 %71, label %72, label %80

72:                                               ; preds = %67
  %73 = load i64, ptr %7, align 8
  %74 = load ptr, ptr %5, align 8
  store i64 %73, ptr %74, align 8
  %75 = getelementptr inbounds %class.inputStream, ptr %10, i32 0, i32 5
  %76 = load i64, ptr %75, align 8
  %77 = load i64, ptr %7, align 8
  %78 = sub i64 %76, %77
  %79 = load ptr, ptr %6, align 8
  store i64 %78, ptr %79, align 8
  br label %105

80:                                               ; preds = %67
  %81 = getelementptr inbounds %class.inputStream, ptr %10, i32 0, i32 5
  %82 = load i64, ptr %81, align 8
  %83 = icmp ult i64 %82, 2048
  br i1 %83, label %84, label %85

84:                                               ; preds = %80
  br label %92

85:                                               ; preds = %80
  %86 = getelementptr inbounds %class.inputStream, ptr %10, i32 0, i32 5
  %87 = load i64, ptr %86, align 8
  %88 = getelementptr inbounds %class.inputStream, ptr %10, i32 0, i32 5
  %89 = load i64, ptr %88, align 8
  %90 = udiv i64 %89, 2
  %91 = add i64 %87, %90
  br label %92

92:                                               ; preds = %85, %84
  %93 = phi i64 [ 2048, %84 ], [ %91, %85 ]
  store i64 %93, ptr %9, align 8
  %94 = load i64, ptr %9, align 8
  %95 = call noundef zeroext i1 @_ZN11inputStream13expand_bufferEm(ptr noundef nonnull align 8 dereferenceable(320) %10, i64 noundef %94)
  br i1 %95, label %96, label %104

96:                                               ; preds = %92
  %97 = load i64, ptr %7, align 8
  %98 = load ptr, ptr %5, align 8
  store i64 %97, ptr %98, align 8
  %99 = getelementptr inbounds %class.inputStream, ptr %10, i32 0, i32 5
  %100 = load i64, ptr %99, align 8
  %101 = load i64, ptr %7, align 8
  %102 = sub i64 %100, %101
  %103 = load ptr, ptr %6, align 8
  store i64 %102, ptr %103, align 8
  br label %105

104:                                              ; preds = %92
  call void @_ZN11inputStream9set_errorEb(ptr noundef nonnull align 8 dereferenceable(320) %10, i1 noundef zeroext true)
  br label %105

105:                                              ; preds = %104, %96, %72, %17
  ret void
}